(dp0
S'desc'
p1
V\u6c38\u6052\u65f6\u5149\u662f\u9886\u5148\u7684\u9910\u996e\u7ba1\u7406\u8f6f\u4ef6
p2
sS'sname'
p3
V\u6c38\u6052\u65f6\u5149\u79d1\u6280\u6709\u9650\u516c\u53f8
p4
sS'name'
p5
V\u6c38\u6052\u65f6\u5149\u79d1\u6280\u6709\u9650\u516c\u53f8
p6
sS'welcome'
p7
V\u60a8\u597d
p8
sS'address'
p9
V\u4e2d\u56fd\u5317\u4eac
p10
s.